; Function Attrs: mustprogress nounwind uwtable
define void @_ZN17RichParameterList5clearEv(ptr noundef nonnull align 8 dereferenceable(24) %0) local_unnamed_addr #4 align 2 personality ptr @__gxx_personality_v0 {
  %.sroa.04.07 = load ptr, ptr %0, align 8
  %.not8 = icmp eq ptr %.sroa.04.07, %0
  br i1 %.not8, label %_ZNSt7__cxx114listIP13RichParameterSaIS2_EE5clearEv.exit, label %.lr.ph

.lr.ph:                                           ; preds = %1, %9
  %.sroa.04.09 = phi ptr [ %.sroa.04.0, %9 ], [ %.sroa.04.07, %1 ]
  %2 = getelementptr inbounds i8, ptr %.sroa.04.09, i64 16
  %3 = load ptr, ptr %2, align 8
  %4 = icmp eq ptr %3, null
  br i1 %4, label %9, label %5

5:                                                ; preds = %.lr.ph
  %6 = load ptr, ptr %3, align 8
  %7 = getelementptr inbounds i8, ptr %6, i64 8
  %8 = load ptr, ptr %7, align 8
  tail call void %8(ptr noundef nonnull align 8 dereferenceable(56) %3) #22
  br label %9

9:                                                ; preds = %.lr.ph, %5
  %.sroa.04.0 = load ptr, ptr %.sroa.04.09, align 8
  %.not = icmp eq ptr %.sroa.04.0, %0
  br i1 %.not, label %._crit_edge, label %.lr.ph

._crit_edge:                                      ; preds = %9
  %.pre = load ptr, ptr %0, align 8
  %.not8.i.i = icmp eq ptr %.pre, %0
  br i1 %.not8.i.i, label %_ZNSt7__cxx114listIP13RichParameterSaIS2_EE5clearEv.exit, label %.lr.ph.i.i

.lr.ph.i.i:                                       ; preds = %._crit_edge, %.lr.ph.i.i
  %.09.i.i = phi ptr [ %10, %.lr.ph.i.i ], [ %.pre, %._crit_edge ]
  %10 = load ptr, ptr %.09.i.i, align 8
  tail call void @_ZdlPv(ptr noundef %.09.i.i) #21
  %.not.i.i = icmp eq ptr %10, %0
  br i1 %.not.i.i, label %_ZNSt7__cxx114listIP13RichParameterSaIS2_EE5clearEv.exit, label %.lr.ph.i.i, !llvm.loop !10

_ZNSt7__cxx114listIP13RichParameterSaIS2_EE5clearEv.exit: ; preds = %.lr.ph.i.i, %1, %._crit_edge
  %11 = getelementptr inbounds i8, ptr %0, i64 8
  store ptr %0, ptr %11, align 8
  store ptr %0, ptr %0, align 8
  %12 = getelementptr inbounds i8, ptr %0, i64 16
  store i64 0, ptr %12, align 8
  ret void
}